; ModuleID = '43/630.c'
source_filename = "43/630.c"
target datalayout = "e-m:e-p270:32:32-p271:32:32-p272:64:64-i64:64-f80:128-n8:16:32:64-S128"
target triple = "x86_64-pc-linux-gnu"

@.str = private unnamed_addr constant [3 x i8] c"%d\00", align 1
@.str.1 = private unnamed_addr constant [7 x i8] c"%d %d\0A\00", align 1

; Function Attrs: noinline nounwind uwtable
define dso_local i32 @main() #0 {
  %1 = alloca i32, align 4
  %2 = alloca i32, align 4
  %3 = alloca i32, align 4
  %4 = alloca i32, align 4
  %5 = alloca i32, align 4
  %6 = alloca i32, align 4
  %7 = alloca i32, align 4
  store i32 0, i32* %1, align 4
  %8 = call i32 (i8*, ...) @__isoc99_scanf(i8* getelementptr inbounds ([3 x i8], [3 x i8]* @.str, i64 0, i64 0), i32* %2)
  %9 = load i32, i32* %2, align 4
  %10 = icmp sge i32 %9, 6
  br i1 %10, label %11, label %83

11:                                               ; preds = %0
  %12 = load i32, i32* %2, align 4
  %13 = icmp sle i32 %12, 10000
  br i1 %13, label %14, label %83

14:                                               ; preds = %11
  %15 = load i32, i32* %2, align 4
  %16 = srem i32 %15, 2
  %17 = icmp eq i32 %16, 0
  br i1 %17, label %18, label %83

18:                                               ; preds = %14
  store i32 3, i32* %3, align 4
  br label %19

19:                                               ; preds = %79, %18
  %20 = load i32, i32* %3, align 4
  %21 = load i32, i32* %2, align 4
  %22 = sdiv i32 %21, 2
  %23 = icmp sle i32 %20, %22
  br i1 %23, label %24, label %82

24:                                               ; preds = %19
  %25 = load i32, i32* %3, align 4
  %26 = sitofp i32 %25 to double
  %27 = call double @sqrt(double %26) #3
  %28 = fptosi double %27 to i32
  store i32 %28, i32* %6, align 4
  store i32 3, i32* %4, align 4
  br label %29

29:                                               ; preds = %40, %24
  %30 = load i32, i32* %4, align 4
  %31 = load i32, i32* %6, align 4
  %32 = icmp sle i32 %30, %31
  br i1 %32, label %33, label %43

33:                                               ; preds = %29
  %34 = load i32, i32* %3, align 4
  %35 = load i32, i32* %4, align 4
  %36 = srem i32 %34, %35
  %37 = icmp eq i32 %36, 0
  br i1 %37, label %38, label %39

38:                                               ; preds = %33
  br label %43

39:                                               ; preds = %33
  br label %40

40:                                               ; preds = %39
  %41 = load i32, i32* %4, align 4
  %42 = add nsw i32 %41, 2
  store i32 %42, i32* %4, align 4
  br label %29

43:                                               ; preds = %38, %29
  %44 = load i32, i32* %4, align 4
  %45 = load i32, i32* %6, align 4
  %46 = icmp sgt i32 %44, %45
  br i1 %46, label %47, label %78

47:                                               ; preds = %43
  %48 = load i32, i32* %2, align 4
  %49 = load i32, i32* %3, align 4
  %50 = sub nsw i32 %48, %49
  store i32 %50, i32* %5, align 4
  %51 = load i32, i32* %5, align 4
  %52 = sitofp i32 %51 to double
  %53 = call double @sqrt(double %52) #3
  %54 = fptosi double %53 to i32
  store i32 %54, i32* %7, align 4
  store i32 3, i32* %4, align 4
  br label %55

55:                                               ; preds = %66, %47
  %56 = load i32, i32* %4, align 4
  %57 = load i32, i32* %7, align 4
  %58 = icmp sle i32 %56, %57
  br i1 %58, label %59, label %69

59:                                               ; preds = %55
  %60 = load i32, i32* %5, align 4
  %61 = load i32, i32* %4, align 4
  %62 = srem i32 %60, %61
  %63 = icmp eq i32 %62, 0
  br i1 %63, label %64, label %65

64:                                               ; preds = %59
  br label %69

65:                                               ; preds = %59
  br label %66

66:                                               ; preds = %65
  %67 = load i32, i32* %4, align 4
  %68 = add nsw i32 %67, 2
  store i32 %68, i32* %4, align 4
  br label %55

69:                                               ; preds = %64, %55
  %70 = load i32, i32* %4, align 4
  %71 = load i32, i32* %7, align 4
  %72 = icmp sgt i32 %70, %71
  br i1 %72, label %73, label %77

73:                                               ; preds = %69
  %74 = load i32, i32* %3, align 4
  %75 = load i32, i32* %5, align 4
  %76 = call i32 (i8*, ...) @printf(i8* getelementptr inbounds ([7 x i8], [7 x i8]* @.str.1, i64 0, i64 0), i32 %74, i32 %75)
  br label %77

77:                                               ; preds = %73, %69
  br label %78

78:                                               ; preds = %77, %43
  br label %79

79:                                               ; preds = %78
  %80 = load i32, i32* %3, align 4
  %81 = add nsw i32 %80, 2
  store i32 %81, i32* %3, align 4
  br label %19

82:                                               ; preds = %19
  br label %83

83:                                               ; preds = %82, %14, %11, %0
  ret i32 0
}

declare dso_local i32 @__isoc99_scanf(i8*, ...) #1

; Function Attrs: nounwind
declare dso_local double @sqrt(double) #2

declare dso_local i32 @printf(i8*, ...) #1


!llvm.module.flags = !{!0}
!llvm.ident = !{!1}

!0 = !{i32 1, !"wchar_size", i32 4}
!1 = !{!"clang version 10.0.0-4ubuntu1 "}
